; ModuleID = '24/2411.c'
source_filename = "24/2411.c"
target datalayout = "e-m:e-p270:32:32-p271:32:32-p272:64:64-i64:64-f80:128-n8:16:32:64-S128"
target triple = "x86_64-pc-linux-gnu"

@.str = private unnamed_addr constant [4 x i8] c"%s\0A\00", align 1

; Function Attrs: noinline nounwind uwtable
define dso_local void @main() #0 {
  %1 = alloca [250 x [30 x i8]], align 16
  %2 = alloca i8, align 1
  %3 = alloca [30 x i8], align 16
  %4 = alloca i32, align 4
  %5 = alloca i32, align 4
  %6 = alloca i32, align 4
  %7 = alloca i32, align 4
  %8 = alloca i32, align 4
  %9 = alloca i32, align 4
  %10 = alloca i32, align 4
  %11 = alloca i32, align 4
  %12 = alloca i32, align 4
  %13 = alloca [250 x i32], align 16
  %14 = alloca i32, align 4
  store i8 97, i8* %2, align 1
  store i32 0, i32* %4, align 4
  store i32 0, i32* %5, align 4
  store i32 0, i32* %6, align 4
  br label %15

15:                                               ; preds = %77, %0
  %16 = load i8, i8* %2, align 1
  %17 = sext i8 %16 to i32
  %18 = icmp ne i32 %17, 10
  br i1 %18, label %19, label %78

19:                                               ; preds = %15
  %20 = call i32 @getchar()
  %21 = trunc i32 %20 to i8
  store i8 %21, i8* %2, align 1
  %22 = load i8, i8* %2, align 1
  %23 = sext i8 %22 to i32
  %24 = icmp ne i32 %23, 32
  br i1 %24, label %25, label %43

25:                                               ; preds = %19
  %26 = load i8, i8* %2, align 1
  %27 = sext i8 %26 to i32
  %28 = icmp ne i32 %27, 44
  br i1 %28, label %29, label %43

29:                                               ; preds = %25
  %30 = load i8, i8* %2, align 1
  %31 = sext i8 %30 to i32
  %32 = icmp ne i32 %31, 10
  br i1 %32, label %33, label %43

33:                                               ; preds = %29
  %34 = load i8, i8* %2, align 1
  %35 = load i32, i32* %4, align 4
  %36 = sext i32 %35 to i64
  %37 = getelementptr inbounds [250 x [30 x i8]], [250 x [30 x i8]]* %1, i64 0, i64 %36
  %38 = load i32, i32* %5, align 4
  %39 = sext i32 %38 to i64
  %40 = getelementptr inbounds [30 x i8], [30 x i8]* %37, i64 0, i64 %39
  store i8 %34, i8* %40, align 1
  %41 = load i32, i32* %5, align 4
  %42 = add nsw i32 %41, 1
  store i32 %42, i32* %5, align 4
  store i32 1, i32* %14, align 4
  br label %43

43:                                               ; preds = %33, %29, %25, %19
  %44 = load i8, i8* %2, align 1
  %45 = sext i8 %44 to i32
  %46 = icmp eq i32 %45, 32
  br i1 %46, label %47, label %50

47:                                               ; preds = %43
  %48 = load i32, i32* %14, align 4
  %49 = icmp eq i32 %48, 1
  br i1 %49, label %64, label %50

50:                                               ; preds = %47, %43
  %51 = load i8, i8* %2, align 1
  %52 = sext i8 %51 to i32
  %53 = icmp eq i32 %52, 44
  br i1 %53, label %54, label %57

54:                                               ; preds = %50
  %55 = load i32, i32* %14, align 4
  %56 = icmp eq i32 %55, 1
  br i1 %56, label %64, label %57

57:                                               ; preds = %54, %50
  %58 = load i8, i8* %2, align 1
  %59 = sext i8 %58 to i32
  %60 = icmp eq i32 %59, 10
  br i1 %60, label %61, label %77

61:                                               ; preds = %57
  %62 = load i32, i32* %14, align 4
  %63 = icmp eq i32 %62, 1
  br i1 %63, label %64, label %77

64:                                               ; preds = %61, %54, %47
  %65 = load i32, i32* %4, align 4
  %66 = sext i32 %65 to i64
  %67 = getelementptr inbounds [250 x [30 x i8]], [250 x [30 x i8]]* %1, i64 0, i64 %66
  %68 = load i32, i32* %5, align 4
  %69 = sext i32 %68 to i64
  %70 = getelementptr inbounds [30 x i8], [30 x i8]* %67, i64 0, i64 %69
  store i8 0, i8* %70, align 1
  %71 = load i32, i32* %5, align 4
  %72 = load i32, i32* %4, align 4
  %73 = sext i32 %72 to i64
  %74 = getelementptr inbounds [250 x i32], [250 x i32]* %13, i64 0, i64 %73
  store i32 %71, i32* %74, align 4
  store i32 0, i32* %5, align 4
  %75 = load i32, i32* %4, align 4
  %76 = add nsw i32 %75, 1
  store i32 %76, i32* %4, align 4
  store i32 0, i32* %14, align 4
  br label %77

77:                                               ; preds = %64, %61, %57
  br label %15

78:                                               ; preds = %15
  %79 = load i32, i32* %4, align 4
  store i32 %79, i32* %8, align 4
  store i32 0, i32* %4, align 4
  br label %80

80:                                               ; preds = %127, %78
  %81 = load i32, i32* %4, align 4
  %82 = load i32, i32* %8, align 4
  %83 = icmp slt i32 %81, %82
  br i1 %83, label %84, label %130

84:                                               ; preds = %80
  store i32 0, i32* %5, align 4
  br label %85

85:                                               ; preds = %117, %84
  %86 = load i32, i32* %5, align 4
  %87 = load i32, i32* %8, align 4
  %88 = icmp slt i32 %86, %87
  br i1 %88, label %89, label %120

89:                                               ; preds = %85
  %90 = load i32, i32* %4, align 4
  %91 = sext i32 %90 to i64
  %92 = getelementptr inbounds [250 x i32], [250 x i32]* %13, i64 0, i64 %91
  %93 = load i32, i32* %92, align 4
  %94 = load i32, i32* %5, align 4
  %95 = sext i32 %94 to i64
  %96 = getelementptr inbounds [250 x i32], [250 x i32]* %13, i64 0, i64 %95
  %97 = load i32, i32* %96, align 4
  %98 = icmp sgt i32 %93, %97
  br i1 %98, label %113, label %99

99:                                               ; preds = %89
  %100 = load i32, i32* %4, align 4
  %101 = sext i32 %100 to i64
  %102 = getelementptr inbounds [250 x i32], [250 x i32]* %13, i64 0, i64 %101
  %103 = load i32, i32* %102, align 4
  %104 = load i32, i32* %5, align 4
  %105 = sext i32 %104 to i64
  %106 = getelementptr inbounds [250 x i32], [250 x i32]* %13, i64 0, i64 %105
  %107 = load i32, i32* %106, align 4
  %108 = icmp eq i32 %103, %107
  br i1 %108, label %109, label %116

109:                                              ; preds = %99
  %110 = load i32, i32* %4, align 4
  %111 = load i32, i32* %5, align 4
  %112 = icmp sle i32 %110, %111
  br i1 %112, label %113, label %116

113:                                              ; preds = %109, %89
  %114 = load i32, i32* %6, align 4
  %115 = add nsw i32 %114, 1
  store i32 %115, i32* %6, align 4
  br label %116

116:                                              ; preds = %113, %109, %99
  br label %117

117:                                              ; preds = %116
  %118 = load i32, i32* %5, align 4
  %119 = add nsw i32 %118, 1
  store i32 %119, i32* %5, align 4
  br label %85

120:                                              ; preds = %85
  %121 = load i32, i32* %6, align 4
  %122 = load i32, i32* %8, align 4
  %123 = icmp eq i32 %121, %122
  br i1 %123, label %124, label %125

124:                                              ; preds = %120
  br label %130

125:                                              ; preds = %120
  store i32 0, i32* %6, align 4
  br label %126

126:                                              ; preds = %125
  br label %127

127:                                              ; preds = %126
  %128 = load i32, i32* %4, align 4
  %129 = add nsw i32 %128, 1
  store i32 %129, i32* %4, align 4
  br label %80

130:                                              ; preds = %124, %80
  %131 = load i32, i32* %4, align 4
  %132 = sext i32 %131 to i64
  %133 = getelementptr inbounds [250 x [30 x i8]], [250 x [30 x i8]]* %1, i64 0, i64 %132
  %134 = getelementptr inbounds [30 x i8], [30 x i8]* %133, i64 0, i64 0
  %135 = call i32 (i8*, ...) @printf(i8* getelementptr inbounds ([4 x i8], [4 x i8]* @.str, i64 0, i64 0), i8* %134)
  store i32 0, i32* %6, align 4
  store i32 0, i32* %4, align 4
  br label %136

136:                                              ; preds = %183, %130
  %137 = load i32, i32* %4, align 4
  %138 = load i32, i32* %8, align 4
  %139 = icmp slt i32 %137, %138
  br i1 %139, label %140, label %186

140:                                              ; preds = %136
  store i32 0, i32* %5, align 4
  br label %141

141:                                              ; preds = %173, %140
  %142 = load i32, i32* %5, align 4
  %143 = load i32, i32* %8, align 4
  %144 = icmp slt i32 %142, %143
  br i1 %144, label %145, label %176

145:                                              ; preds = %141
  %146 = load i32, i32* %4, align 4
  %147 = sext i32 %146 to i64
  %148 = getelementptr inbounds [250 x i32], [250 x i32]* %13, i64 0, i64 %147
  %149 = load i32, i32* %148, align 4
  %150 = load i32, i32* %5, align 4
  %151 = sext i32 %150 to i64
  %152 = getelementptr inbounds [250 x i32], [250 x i32]* %13, i64 0, i64 %151
  %153 = load i32, i32* %152, align 4
  %154 = icmp slt i32 %149, %153
  br i1 %154, label %169, label %155

155:                                              ; preds = %145
  %156 = load i32, i32* %4, align 4
  %157 = sext i32 %156 to i64
  %158 = getelementptr inbounds [250 x i32], [250 x i32]* %13, i64 0, i64 %157
  %159 = load i32, i32* %158, align 4
  %160 = load i32, i32* %5, align 4
  %161 = sext i32 %160 to i64
  %162 = getelementptr inbounds [250 x i32], [250 x i32]* %13, i64 0, i64 %161
  %163 = load i32, i32* %162, align 4
  %164 = icmp eq i32 %159, %163
  br i1 %164, label %165, label %172

165:                                              ; preds = %155
  %166 = load i32, i32* %4, align 4
  %167 = load i32, i32* %5, align 4
  %168 = icmp sle i32 %166, %167
  br i1 %168, label %169, label %172

169:                                              ; preds = %165, %145
  %170 = load i32, i32* %6, align 4
  %171 = add nsw i32 %170, 1
  store i32 %171, i32* %6, align 4
  br label %172

172:                                              ; preds = %169, %165, %155
  br label %173

173:                                              ; preds = %172
  %174 = load i32, i32* %5, align 4
  %175 = add nsw i32 %174, 1
  store i32 %175, i32* %5, align 4
  br label %141

176:                                              ; preds = %141
  %177 = load i32, i32* %6, align 4
  %178 = load i32, i32* %8, align 4
  %179 = icmp eq i32 %177, %178
  br i1 %179, label %180, label %181

180:                                              ; preds = %176
  br label %186

181:                                              ; preds = %176
  store i32 0, i32* %6, align 4
  br label %182

182:                                              ; preds = %181
  br label %183

183:                                              ; preds = %182
  %184 = load i32, i32* %4, align 4
  %185 = add nsw i32 %184, 1
  store i32 %185, i32* %4, align 4
  br label %136

186:                                              ; preds = %180, %136
  %187 = load i32, i32* %4, align 4
  %188 = sext i32 %187 to i64
  %189 = getelementptr inbounds [250 x [30 x i8]], [250 x [30 x i8]]* %1, i64 0, i64 %188
  %190 = getelementptr inbounds [30 x i8], [30 x i8]* %189, i64 0, i64 0
  %191 = call i32 (i8*, ...) @printf(i8* getelementptr inbounds ([4 x i8], [4 x i8]* @.str, i64 0, i64 0), i8* %190)
  ret void
}

declare dso_local i32 @getchar() #1

declare dso_local i32 @printf(i8*, ...) #1


!llvm.module.flags = !{!0}
!llvm.ident = !{!1}

!0 = !{i32 1, !"wchar_size", i32 4}
!1 = !{!"clang version 10.0.0-4ubuntu1 "}
